; Function Attrs: nounwind uwtable
define dso_local i32 @get_domain_constraint_oid(i32 noundef %0, ptr noundef %1, i1 noundef zeroext %2) local_unnamed_addr #0 {
  %4 = alloca [3 x %struct.ScanKeyData], align 16
  call void @llvm.lifetime.start.p0(i64 216, ptr nonnull %4) #12
  %5 = tail call ptr @table_open(i32 noundef 2606, i32 noundef 1) #12
  call void @ScanKeyInit(ptr noundef nonnull %4, i16 noundef signext 9, i16 noundef zeroext 3, i32 noundef 184, i64 noundef 0) #12
  %6 = getelementptr inbounds nuw i8, ptr %4, i64 72
  %7 = zext i32 %0 to i64
  call void @ScanKeyInit(ptr noundef nonnull %6, i16 noundef signext 10, i16 noundef zeroext 3, i32 noundef 184, i64 noundef %7) #12
  %8 = getelementptr inbounds nuw i8, ptr %4, i64 144
  %9 = ptrtoint ptr %1 to i64
  call void @ScanKeyInit(ptr noundef nonnull %8, i16 noundef signext 2, i16 noundef zeroext 3, i32 noundef 62, i64 noundef %9) #12
  %10 = call ptr @systable_beginscan(ptr noundef %5, i32 noundef 2665, i1 noundef zeroext true, ptr noundef null, i32 noundef 3, ptr noundef nonnull %4) #12
  %11 = call ptr @systable_getnext(ptr noundef %10) #12
  %.not = icmp eq ptr %11, null
  br i1 %.not, label %19, label %12

12:                                               ; preds = %3
  %13 = getelementptr i8, ptr %11, i64 16
  %.val = load ptr, ptr %13, align 8
  %14 = getelementptr inbounds nuw i8, ptr %.val, i64 22
  %15 = load i8, ptr %14, align 2
  %16 = zext i8 %15 to i64
  %17 = getelementptr inbounds nuw i8, ptr %.val, i64 %16
  %18 = load i32, ptr %17, align 4
  br label %19

19:                                               ; preds = %12, %3
  %.0 = phi i32 [ %18, %12 ], [ 0, %3 ]
  call void @systable_endscan(ptr noundef %10) #12
  %.not12 = icmp ne i32 %.0, 0
  %brmerge = or i1 %2, %.not12
  br i1 %brmerge, label %25, label %20

20:                                               ; preds = %19
  %21 = call zeroext i1 @errstart_cold(i32 noundef 21, ptr noundef null) #14
  call void @llvm.assume(i1 %21)
  %22 = call i32 @errcode(i32 noundef 67137668) #12
  %23 = call ptr @format_type_be(i32 noundef %0) #12
  %24 = call i32 (ptr, ...) @errmsg(ptr noundef nonnull @.str.13, ptr noundef %1, ptr noundef %23) #12
  call void @errfinish(ptr noundef nonnull @.str.2, i32 noundef 1387, ptr noundef nonnull @__func__.get_domain_constraint_oid) #12
  unreachable

25:                                               ; preds = %19
  call void @table_close(ptr noundef %5, i32 noundef 1) #12
  call void @llvm.lifetime.end.p0(i64 216, ptr nonnull %4) #12
  ret i32 %.0
}